; Function Attrs: mustprogress uwtable
define void @_ZN6icu_776number4impl23MultiplierFormatHandler11setAndChainERKNS0_5ScaleEPKNS1_19MicroPropsGeneratorE(ptr noundef nonnull writeonly align 8 dereferenceable(40) %0, ptr noundef nonnull readonly align 8 dereferenceable(20) %1, ptr noundef %2) local_unnamed_addr #1 align 2 personality ptr @__gxx_personality_v0 {
  %4 = alloca i32, align 4
  %5 = getelementptr inbounds nuw i8, ptr %0, i64 8
  %6 = icmp eq ptr %5, %1
  br i1 %6, label %_ZN6icu_776number5ScaleaSERKS1_.exit, label %7

7:                                                ; preds = %3
  %8 = load i32, ptr %1, align 8, !tbaa !15
  store i32 %8, ptr %5, align 8, !tbaa !15
  %9 = getelementptr inbounds nuw i8, ptr %1, i64 8
  %10 = load ptr, ptr %9, align 8, !tbaa !18
  %.not.i = icmp eq ptr %10, null
  br i1 %.not.i, label %20, label %11

11:                                               ; preds = %7
  call void @llvm.lifetime.start.p0(i64 4, ptr nonnull %4) #13
  store i32 0, ptr %4, align 4, !tbaa !13
  %12 = tail call noundef ptr @_ZN6icu_777UMemorynwEm(i64 noundef 96) #13
  %13 = icmp eq ptr %12, null
  br i1 %13, label %16, label %14

14:                                               ; preds = %11
  %15 = load ptr, ptr %9, align 8, !tbaa !18
  invoke void @_ZN6icu_776number4impl6DecNumC1ERKS2_R10UErrorCode(ptr noundef nonnull align 8 dereferenceable(92) %12, ptr noundef nonnull align 8 dereferenceable(92) %15, ptr noundef nonnull align 4 dereferenceable(4) %4)
          to label %16 unwind label %18

16:                                               ; preds = %14, %11
  %17 = getelementptr inbounds nuw i8, ptr %0, i64 16
  store ptr %12, ptr %17, align 8, !tbaa !18
  call void @llvm.lifetime.end.p0(i64 4, ptr nonnull %4) #13
  br label %22

18:                                               ; preds = %14
  %19 = landingpad { ptr, i32 }
          cleanup
  call void @_ZN6icu_777UMemorydlEPv(ptr noundef nonnull %12) #13
  call void @llvm.lifetime.end.p0(i64 4, ptr nonnull %4) #13
  resume { ptr, i32 } %19

20:                                               ; preds = %7
  %21 = getelementptr inbounds nuw i8, ptr %0, i64 16
  store ptr null, ptr %21, align 8, !tbaa !18
  br label %22

22:                                               ; preds = %20, %16
  %23 = getelementptr inbounds nuw i8, ptr %1, i64 16
  %24 = load i32, ptr %23, align 8, !tbaa !19
  %25 = getelementptr inbounds nuw i8, ptr %0, i64 24
  store i32 %24, ptr %25, align 8, !tbaa !19
  br label %_ZN6icu_776number5ScaleaSERKS1_.exit

_ZN6icu_776number5ScaleaSERKS1_.exit:             ; preds = %3, %22
  %26 = getelementptr inbounds nuw i8, ptr %0, i64 32
  store ptr %2, ptr %26, align 8, !tbaa !29
  ret void
}